; Function Attrs: inlinehint mustprogress optsize uwtable
define internal noundef ptr @"_ZZN8nanobind6detail11func_createILb0ELb1EZL32nanobind_init_test_functions_extRNS_7module_EE4$_16NS_5tupleEJETpTnmJEJNS_5scopeENS_4nameEEEEP7_objectOT1_PFT2_DpT3_ESt16integer_sequenceImJXspT4_EEEDpRKT5_ENUlPvPS9_PhNS_9rv_policyEPNS0_12cleanup_listEE_8__invokeESN_SO_SP_SQ_SS_"(ptr readnone captures(none) %0, ptr readnone captures(none) %1, ptr readnone captures(none) %2, i32 %3, ptr readnone captures(none) %4) #15 align 2 personality ptr @__gxx_personality_v0 {
  %6 = alloca %struct.Foo, align 1
  %7 = alloca %"class.nanobind::tuple", align 8
  call void @llvm.lifetime.start.p0(i64 8, ptr nonnull %7) #27
  tail call void @llvm.experimental.noalias.scope.decl(metadata !189)
  call void @llvm.lifetime.start.p0(i64 1, ptr nonnull %6) #27, !noalias !189
  tail call void @llvm.experimental.noalias.scope.decl(metadata !192)
  %8 = tail call ptr @PyTuple_New(i64 noundef 2) #28, !noalias !195
  store ptr %8, ptr %7, align 8, !alias.scope !195
  %9 = invoke ptr @PyUnicode_FromString(ptr noundef nonnull @.str.126) #28
          to label %_ZN8nanobind6detail11type_casterIciE8from_cppEPKcNS_9rv_policyEPNS0_12cleanup_listE.exit.i.i unwind label %10, !noalias !195

10:                                               ; preds = %5
  %11 = landingpad { ptr, i32 }
          catch ptr null
  %12 = extractvalue { ptr, i32 } %11, 0
  tail call void @__clang_call_terminate(ptr %12) #30, !noalias !195
  unreachable

_ZN8nanobind6detail11type_casterIciE8from_cppEPKcNS_9rv_policyEPNS0_12cleanup_listE.exit.i.i: ; preds = %5
  %13 = getelementptr inbounds nuw i8, ptr %8, i64 24
  store ptr %9, ptr %13, align 8, !tbaa !158, !noalias !195
  %14 = call noundef ptr @_ZN8nanobind6detail11nb_type_putEPKSt9type_infoPvNS_9rv_policyEPNS0_12cleanup_listEPb(ptr noundef nonnull @"_ZTIZZL32nanobind_init_test_functions_extRN8nanobind7module_EENK4$_16clEvE3Foo", ptr noundef nonnull align 1 dereferenceable(1) %6, i32 noundef 4, ptr noundef null, ptr noundef null) #31, !noalias !195
  %15 = getelementptr inbounds nuw i8, ptr %8, i64 32
  store ptr %14, ptr %15, align 8, !tbaa !158, !noalias !195
  invoke void @_ZN8nanobind6detail11tuple_checkEP7_objectm(ptr noundef nonnull %8, i64 noundef 2) #28
          to label %"_ZZL32nanobind_init_test_functions_extRN8nanobind7module_EENK4$_16clEv.exit" unwind label %16, !noalias !195

16:                                               ; preds = %_ZN8nanobind6detail11type_casterIciE8from_cppEPKcNS_9rv_policyEPNS0_12cleanup_listE.exit.i.i
  %17 = landingpad { ptr, i32 }
          cleanup
  %18 = call noundef nonnull align 8 dereferenceable(8) ptr @_ZNKR8nanobind6handle7dec_refEv(ptr noundef nonnull align 8 dereferenceable(8) %7) #31
  resume { ptr, i32 } %17

"_ZZL32nanobind_init_test_functions_extRN8nanobind7module_EENK4$_16clEv.exit": ; preds = %_ZN8nanobind6detail11type_casterIciE8from_cppEPKcNS_9rv_policyEPNS0_12cleanup_listE.exit.i.i
  call void @llvm.lifetime.end.p0(i64 1, ptr nonnull %6) #27, !noalias !189
  store ptr null, ptr %7, align 8, !tbaa !44
  %19 = call noundef nonnull align 8 dereferenceable(8) ptr @_ZNKR8nanobind6handle7dec_refEv(ptr noundef nonnull align 8 dereferenceable(8) %7) #31
  call void @llvm.lifetime.end.p0(i64 8, ptr nonnull %7) #27
  ret ptr %8
}